target datalayout = "e-m:e-p270:32:32-p271:32:32-p272:64:64-i64:64-i128:128-f80:128-n8:16:32:64-S128"
target triple = "x86_64-pc-linux-gnu"

%class.LogTagSet = type { ptr, i64, [5 x i32], [4 x i8], %class.LogOutputList, %class.LogDecorators, ptr }
%class.LogOutputList = type <{ [6 x ptr], i32, [4 x i8] }>
%class.LogDecorators = type { i32 }

@_ZL10_dump_path = internal global [4097 x i8] zeroinitializer, align 16
@_ZL12_path_buffer = internal global [4097 x i8] zeroinitializer, align 16
@_ZN16LogTagSetMappingILN6LogTag4typeE64ELS1_0ELS1_0ELS1_0ELS1_0ELS1_0EE7_tagsetE = linkonce_odr hidden global %class.LogTagSet zeroinitializer, comdat, align 8
@.str.17 = private unnamed_addr constant [75 x i8] c"Unable to create an emergency dump file at the location set by dumppath=%s\00", align 1
@_ZL12emergency_fd = internal global i32 -1, align 4

; Function Attrs: mustprogress nounwind uwtable
define linkonce_odr hidden noundef zeroext i1 @_ZNK13LogOutputList8is_levelEN8LogLevel4typeE(ptr noundef nonnull align 8 dereferenceable(52) %0, i32 noundef %1) #1 comdat align 2 {
  %3 = alloca ptr, align 8
  %4 = alloca i32, align 4
  store ptr %0, ptr %3, align 8
  store i32 %1, ptr %4, align 4
  %5 = load ptr, ptr %3, align 8
  %6 = getelementptr inbounds %class.LogOutputList, ptr %5, i32 0, i32 0
  %7 = load i32, ptr %4, align 4
  %8 = zext i32 %7 to i64
  %9 = getelementptr inbounds [6 x ptr], ptr %6, i64 0, i64 %8
  %10 = load volatile ptr, ptr %9, align 8
  %11 = icmp ne ptr %10, null
  ret i1 %11
}

; Function Attrs: mustprogress nounwind uwtable
define linkonce_odr hidden noundef zeroext i1 @_ZNK9LogTagSet8is_levelEN8LogLevel4typeE(ptr noundef nonnull align 8 dereferenceable(112) %0, i32 noundef %1) #1 comdat align 2 {
  %3 = alloca ptr, align 8
  %4 = alloca i32, align 4
  store ptr %0, ptr %3, align 8
  store i32 %1, ptr %4, align 4
  %5 = load ptr, ptr %3, align 8
  %6 = getelementptr inbounds %class.LogTagSet, ptr %5, i32 0, i32 4
  %7 = load i32, ptr %4, align 4
  %8 = call noundef zeroext i1 @_ZNK13LogOutputList8is_levelEN8LogLevel4typeE(ptr noundef nonnull align 8 dereferenceable(52) %6, i32 noundef %7)
  ret i1 %8
}

; Function Attrs: mustprogress nounwind uwtable
define linkonce_odr hidden noundef nonnull align 8 dereferenceable(112) ptr @_ZN16LogTagSetMappingILN6LogTag4typeE64ELS1_0ELS1_0ELS1_0ELS1_0ELS1_0EE6tagsetEv() #1 comdat align 2 {
  ret ptr @_ZN16LogTagSetMappingILN6LogTag4typeE64ELS1_0ELS1_0ELS1_0ELS1_0ELS1_0EE7_tagsetE
}

; Function Attrs: mustprogress nounwind uwtable
define internal noundef i32 @_ZL15open_exclusivlyPKc(ptr noundef %0) #1 {
  %2 = alloca ptr, align 8
  store ptr %0, ptr %2, align 8
  %3 = load ptr, ptr %2, align 8
  %4 = call noundef i32 @_ZN2os4openEPKcii(ptr noundef %3, i32 noundef 66, i32 noundef 384)
  ret i32 %4
}

; Function Attrs: mustprogress nounwind uwtable
define linkonce_odr hidden noundef zeroext i1 @_ZN7LogImplILN6LogTag4typeE64ELS1_0ELS1_0ELS1_0ELS1_0ELS1_0EE8is_levelEN8LogLevel4typeE(i32 noundef %0) #1 comdat align 2 {
  %2 = alloca i32, align 4
  store i32 %0, ptr %2, align 4
  %3 = call noundef nonnull align 8 dereferenceable(112) ptr @_ZN16LogTagSetMappingILN6LogTag4typeE64ELS1_0ELS1_0ELS1_0ELS1_0ELS1_0EE6tagsetEv()
  %4 = load i32, ptr %2, align 4
  %5 = call noundef zeroext i1 @_ZNK9LogTagSet8is_levelEN8LogLevel4typeE(ptr noundef nonnull align 8 dereferenceable(112) %3, i32 noundef %4)
  ret i1 %5
}

; Function Attrs: mustprogress nounwind uwtable
define internal noundef zeroext i1 @_ZL22open_emergency_dump_fdPKc(ptr noundef %0) #1 {
  %2 = alloca i1, align 1
  %3 = alloca ptr, align 8
  store ptr %0, ptr %3, align 8
  %4 = load ptr, ptr %3, align 8
  %5 = icmp eq ptr %4, null
  br i1 %5, label %6, label %7

6:                                                ; preds = %1
  store i1 false, ptr %2, align 1
  br label %12

7:                                                ; preds = %1
  %8 = load ptr, ptr %3, align 8
  %9 = call noundef i32 @_ZL15open_exclusivlyPKc(ptr noundef %8)
  store i32 %9, ptr @_ZL12emergency_fd, align 4
  %10 = load i32, ptr @_ZL12emergency_fd, align 4
  %11 = icmp ne i32 %10, -1
  store i1 %11, ptr %2, align 1
  br label %12

12:                                               ; preds = %7, %6
  %13 = load i1, ptr %2, align 1
  ret i1 %13
}

; Function Attrs: mustprogress nounwind uwtable
define internal noundef zeroext i1 @_ZL27is_emergency_dump_file_openv() #1 {
  %1 = load i32, ptr @_ZL12emergency_fd, align 4
  %2 = icmp ne i32 %1, -1
  ret i1 %2
}

; Function Attrs: mustprogress nounwind uwtable
define internal noundef zeroext i1 @_ZL24open_emergency_dump_filev() #1 {
  %1 = alloca i1, align 1
  %2 = alloca i8, align 1
  %3 = call noundef zeroext i1 @_ZL27is_emergency_dump_file_openv()
  br i1 %3, label %4, label %5

4:                                                ; preds = %0
  store i1 true, ptr %1, align 1
  br label %26

5:                                                ; preds = %0
  %6 = call noundef ptr @_ZL26create_emergency_dump_pathv()
  %7 = call noundef zeroext i1 @_ZL22open_emergency_dump_fdPKc(ptr noundef %6)
  %8 = zext i1 %7 to i8
  store i8 %8, ptr %2, align 1
  %9 = load i8, ptr %2, align 1
  %10 = trunc i8 %9 to i1
  br i1 %10, label %23, label %11

11:                                               ; preds = %5
  %12 = load i8, ptr @_ZL10_dump_path, align 16
  %13 = sext i8 %12 to i32
  %14 = icmp ne i32 %13, 0
  br i1 %14, label %15, label %23

15:                                               ; preds = %11
  %16 = call noundef zeroext i1 @_ZN7LogImplILN6LogTag4typeE64ELS1_0ELS1_0ELS1_0ELS1_0ELS1_0EE8is_levelEN8LogLevel4typeE(i32 noundef 4)
  br i1 %16, label %18, label %17

17:                                               ; preds = %15
  br label %19

18:                                               ; preds = %15
  call void (ptr, ...) @_ZN7LogImplILN6LogTag4typeE64ELS1_0ELS1_0ELS1_0ELS1_0ELS1_0EE5writeILN8LogLevel4typeE4EEEvPKcz(ptr noundef @.str.17, ptr noundef @_ZL10_dump_path)
  br label %19

19:                                               ; preds = %18, %17
  store i8 0, ptr @_ZL10_dump_path, align 16
  store i8 0, ptr @_ZL12_path_buffer, align 16
  %20 = call noundef ptr @_ZL26create_emergency_dump_pathv()
  %21 = call noundef zeroext i1 @_ZL22open_emergency_dump_fdPKc(ptr noundef %20)
  %22 = zext i1 %21 to i8
  store i8 %22, ptr %2, align 1
  br label %23

23:                                               ; preds = %19, %11, %5
  %24 = load i8, ptr %2, align 1
  %25 = trunc i8 %24 to i1
  store i1 %25, ptr %1, align 1
  br label %26

26:                                               ; preds = %23, %4
  %27 = load i1, ptr %1, align 1
  ret i1 %27
}