; Function Attrs: mustprogress nounwind uwtable
define internal fastcc noundef zeroext i1 @_ZL24open_emergency_dump_filev() unnamed_addr #0 {
  %1 = load i32, ptr @_ZL12emergency_fd, align 4
  %.not = icmp eq i32 %1, -1
  br i1 %.not, label %2, label %_ZL22open_emergency_dump_fdPKc.exit7

2:                                                ; preds = %0
  %3 = tail call fastcc noundef ptr @_ZL26create_emergency_dump_pathv()
  %4 = icmp eq ptr %3, null
  br i1 %4, label %_ZL22open_emergency_dump_fdPKc.exit, label %5

5:                                                ; preds = %2
  %6 = tail call noundef i32 @_ZN2os4openEPKcii(ptr noundef nonnull %3, i32 noundef 66, i32 noundef 384) #16
  store i32 %6, ptr @_ZL12emergency_fd, align 4
  %7 = icmp ne i32 %6, -1
  br label %_ZL22open_emergency_dump_fdPKc.exit

_ZL22open_emergency_dump_fdPKc.exit:              ; preds = %2, %5
  %.0.i = phi i1 [ %7, %5 ], [ false, %2 ]
  %8 = load i8, ptr @_ZL10_dump_path, align 16
  %9 = icmp eq i8 %8, 0
  %or.cond.not = select i1 %.0.i, i1 true, i1 %9
  br i1 %or.cond.not, label %_ZL22open_emergency_dump_fdPKc.exit7, label %10

10:                                               ; preds = %_ZL22open_emergency_dump_fdPKc.exit
  %11 = load volatile ptr, ptr getelementptr inbounds (i8, ptr @_ZN16LogTagSetMappingILN6LogTag4typeE64ELS1_0ELS1_0ELS1_0ELS1_0ELS1_0EE7_tagsetE, i64 72), align 8
  %.not8 = icmp eq ptr %11, null
  br i1 %.not8, label %13, label %12

12:                                               ; preds = %10
  tail call void (ptr, ...) @_ZN7LogImplILN6LogTag4typeE64ELS1_0ELS1_0ELS1_0ELS1_0ELS1_0EE5writeILN8LogLevel4typeE4EEEvPKcz(ptr noundef nonnull @.str.17, ptr noundef nonnull @_ZL10_dump_path)
  br label %13

13:                                               ; preds = %10, %12
  store i8 0, ptr @_ZL10_dump_path, align 16
  store i8 0, ptr @_ZL12_path_buffer, align 16
  %14 = tail call fastcc noundef ptr @_ZL26create_emergency_dump_pathv()
  %15 = icmp eq ptr %14, null
  br i1 %15, label %_ZL22open_emergency_dump_fdPKc.exit7, label %16

16:                                               ; preds = %13
  %17 = tail call noundef i32 @_ZN2os4openEPKcii(ptr noundef nonnull %14, i32 noundef 66, i32 noundef 384) #16
  store i32 %17, ptr @_ZL12emergency_fd, align 4
  %18 = icmp ne i32 %17, -1
  br label %_ZL22open_emergency_dump_fdPKc.exit7

_ZL22open_emergency_dump_fdPKc.exit7:             ; preds = %16, %13, %_ZL22open_emergency_dump_fdPKc.exit, %0
  %.04 = phi i1 [ true, %0 ], [ %.0.i, %_ZL22open_emergency_dump_fdPKc.exit ], [ %18, %16 ], [ false, %13 ]
  ret i1 %.04
}